target datalayout = "e-m:e-p270:32:32-p271:32:32-p272:64:64-i64:64-i128:128-f80:128-n8:16:32:64-S128"
target triple = "x86_64-pc-linux-gnu"

%"struct.Luau::CodeGen::BuiltinImplResult" = type { i32, i32 }
%"struct.Luau::CodeGen::IrOp" = type { i32 }

; Function Attrs: mustprogress uwtable
define internal i32 @_ZN4Luau7CodeGenL17builtinLoadDoubleERNS0_9IrBuilderENS0_4IrOpE(ptr noundef nonnull align 8 dereferenceable(752) %0, i32 %1) #2 {
  %3 = alloca %"struct.Luau::CodeGen::IrOp", align 4
  %4 = alloca %"struct.Luau::CodeGen::IrOp", align 4
  %5 = alloca ptr, align 8
  %6 = alloca %"struct.Luau::CodeGen::IrOp", align 4
  %7 = getelementptr inbounds nuw %"struct.Luau::CodeGen::IrOp", ptr %4, i32 0, i32 0
  store i32 %1, ptr %7, align 4
  store ptr %0, ptr %5, align 8, !tbaa !20
  %8 = load i32, ptr %4, align 4
  %9 = and i32 %8, 15
  %10 = icmp eq i32 %9, 2
  br i1 %10, label %11, label %12

11:                                               ; preds = %2
  call void @llvm.memcpy.p0.p0.i64(ptr align 4 %3, ptr align 4 %4, i64 4, i1 false), !tbaa.struct !28
  br label %18

12:                                               ; preds = %2
  %13 = load ptr, ptr %5, align 8, !tbaa !20
  call void @llvm.memcpy.p0.p0.i64(ptr align 4 %6, ptr align 4 %4, i64 4, i1 false), !tbaa.struct !28
  %14 = getelementptr inbounds nuw %"struct.Luau::CodeGen::IrOp", ptr %6, i32 0, i32 0
  %15 = load i32, ptr %14, align 4
  %16 = call i32 @_ZN4Luau7CodeGen9IrBuilder4instENS0_5IrCmdENS0_4IrOpE(ptr noundef nonnull align 8 dereferenceable(752) %13, i8 noundef zeroext 3, i32 %15)
  %17 = getelementptr inbounds nuw %"struct.Luau::CodeGen::IrOp", ptr %3, i32 0, i32 0
  store i32 %16, ptr %17, align 4
  br label %18

18:                                               ; preds = %12, %11
  %19 = getelementptr inbounds nuw %"struct.Luau::CodeGen::IrOp", ptr %3, i32 0, i32 0
  %20 = load i32, ptr %19, align 4
  ret i32 %20
}

; Function Attrs: mustprogress uwtable
define internal void @_ZN4Luau7CodeGenL18builtinCheckDoubleERNS0_9IrBuilderENS0_4IrOpEi(ptr noundef nonnull align 8 dereferenceable(752) %0, i32 %1, i32 noundef %2) #2 {
  %4 = alloca %"struct.Luau::CodeGen::IrOp", align 4
  %5 = alloca ptr, align 8
  %6 = alloca i32, align 4
  %7 = alloca %"struct.Luau::CodeGen::IrOp", align 4
  %8 = alloca %"struct.Luau::CodeGen::IrOp", align 4
  %9 = getelementptr inbounds nuw %"struct.Luau::CodeGen::IrOp", ptr %4, i32 0, i32 0
  store i32 %1, ptr %9, align 4
  store ptr %0, ptr %5, align 8, !tbaa !20
  store i32 %2, ptr %6, align 4, !tbaa !22
  %10 = load i32, ptr %4, align 4
  %11 = and i32 %10, 15
  %12 = icmp eq i32 %11, 2
  br i1 %12, label %13, label %14

13:                                               ; preds = %3
  br label %24

14:                                               ; preds = %3
  %15 = load ptr, ptr %5, align 8, !tbaa !20
  call void @llvm.memcpy.p0.p0.i64(ptr align 4 %7, ptr align 4 %4, i64 4, i1 false), !tbaa.struct !28
  %16 = load ptr, ptr %5, align 8, !tbaa !20
  %17 = load i32, ptr %6, align 4, !tbaa !22
  %18 = call i32 @_ZN4Luau7CodeGen9IrBuilder6vmExitEj(ptr noundef nonnull align 8 dereferenceable(752) %16, i32 noundef %17)
  %19 = getelementptr inbounds nuw %"struct.Luau::CodeGen::IrOp", ptr %8, i32 0, i32 0
  store i32 %18, ptr %19, align 4
  %20 = getelementptr inbounds nuw %"struct.Luau::CodeGen::IrOp", ptr %7, i32 0, i32 0
  %21 = load i32, ptr %20, align 4
  %22 = getelementptr inbounds nuw %"struct.Luau::CodeGen::IrOp", ptr %8, i32 0, i32 0
  %23 = load i32, ptr %22, align 4
  call void @_ZN4Luau7CodeGen9IrBuilder15loadAndCheckTagENS0_4IrOpEhS2_(ptr noundef nonnull align 8 dereferenceable(752) %15, i32 %21, i8 noundef zeroext 3, i32 %23)
  br label %24

24:                                               ; preds = %14, %13
  ret void
}

; Function Attrs: mustprogress uwtable
define internal i64 @_ZN4Luau7CodeGenL25translateBuiltinBit32BnotERNS0_9IrBuilderEiiiNS0_4IrOpEii(ptr noundef nonnull align 8 dereferenceable(752) %0, i32 noundef %1, i32 noundef %2, i32 noundef %3, i32 %4, i32 noundef %5, i32 noundef %6) #2 {
  %8 = alloca %"struct.Luau::CodeGen::BuiltinImplResult", align 4
  %9 = alloca %"struct.Luau::CodeGen::IrOp", align 4
  %10 = alloca ptr, align 8
  %11 = alloca i32, align 4
  %12 = alloca i32, align 4
  %13 = alloca i32, align 4
  %14 = alloca i32, align 4
  %15 = alloca i32, align 4
  %16 = alloca %"struct.Luau::CodeGen::IrOp", align 4
  %17 = alloca %"struct.Luau::CodeGen::IrOp", align 4
  %18 = alloca %"struct.Luau::CodeGen::IrOp", align 4
  %19 = alloca %"struct.Luau::CodeGen::IrOp", align 4
  %20 = alloca %"struct.Luau::CodeGen::IrOp", align 4
  %21 = alloca %"struct.Luau::CodeGen::IrOp", align 4
  %22 = alloca %"struct.Luau::CodeGen::IrOp", align 4
  %23 = alloca %"struct.Luau::CodeGen::IrOp", align 4
  %24 = alloca %"struct.Luau::CodeGen::IrOp", align 4
  %25 = alloca %"struct.Luau::CodeGen::IrOp", align 4
  %26 = alloca %"struct.Luau::CodeGen::IrOp", align 4
  %27 = alloca %"struct.Luau::CodeGen::IrOp", align 4
  %28 = alloca %"struct.Luau::CodeGen::IrOp", align 4
  %29 = alloca %"struct.Luau::CodeGen::IrOp", align 4
  %30 = alloca %"struct.Luau::CodeGen::IrOp", align 4
  %31 = getelementptr inbounds nuw %"struct.Luau::CodeGen::IrOp", ptr %9, i32 0, i32 0
  store i32 %4, ptr %31, align 4
  store ptr %0, ptr %10, align 8, !tbaa !20
  store i32 %1, ptr %11, align 4, !tbaa !22
  store i32 %2, ptr %12, align 4, !tbaa !22
  store i32 %3, ptr %13, align 4, !tbaa !22
  store i32 %5, ptr %14, align 4, !tbaa !22
  store i32 %6, ptr %15, align 4, !tbaa !22
  %32 = load i32, ptr %11, align 4, !tbaa !22
  %33 = icmp slt i32 %32, 1
  br i1 %33, label %37, label %34

34:                                               ; preds = %7
  %35 = load i32, ptr %14, align 4, !tbaa !22
  %36 = icmp sgt i32 %35, 1
  br i1 %36, label %37, label %40

37:                                               ; preds = %34, %7
  %38 = getelementptr inbounds nuw %"struct.Luau::CodeGen::BuiltinImplResult", ptr %8, i32 0, i32 0
  store i32 0, ptr %38, align 4, !tbaa !24
  %39 = getelementptr inbounds nuw %"struct.Luau::CodeGen::BuiltinImplResult", ptr %8, i32 0, i32 1
  store i32 -1, ptr %39, align 4, !tbaa !27
  br label %109

40:                                               ; preds = %34
  %41 = load ptr, ptr %10, align 8, !tbaa !20
  %42 = load ptr, ptr %10, align 8, !tbaa !20
  %43 = load i32, ptr %13, align 4, !tbaa !22
  %44 = trunc i32 %43 to i8
  %45 = call i32 @_ZN4Luau7CodeGen9IrBuilder5vmRegEh(ptr noundef nonnull align 8 dereferenceable(752) %42, i8 noundef zeroext %44)
  %46 = getelementptr inbounds nuw %"struct.Luau::CodeGen::IrOp", ptr %16, i32 0, i32 0
  store i32 %45, ptr %46, align 4
  %47 = load i32, ptr %15, align 4, !tbaa !22
  %48 = getelementptr inbounds nuw %"struct.Luau::CodeGen::IrOp", ptr %16, i32 0, i32 0
  %49 = load i32, ptr %48, align 4
  call void @_ZN4Luau7CodeGenL18builtinCheckDoubleERNS0_9IrBuilderENS0_4IrOpEi(ptr noundef nonnull align 8 dereferenceable(752) %41, i32 %49, i32 noundef %47)
  call void @llvm.lifetime.start.p0(i64 4, ptr %17) #11
  %50 = load ptr, ptr %10, align 8, !tbaa !20
  %51 = load ptr, ptr %10, align 8, !tbaa !20
  %52 = load i32, ptr %13, align 4, !tbaa !22
  %53 = trunc i32 %52 to i8
  %54 = call i32 @_ZN4Luau7CodeGen9IrBuilder5vmRegEh(ptr noundef nonnull align 8 dereferenceable(752) %51, i8 noundef zeroext %53)
  %55 = getelementptr inbounds nuw %"struct.Luau::CodeGen::IrOp", ptr %18, i32 0, i32 0
  store i32 %54, ptr %55, align 4
  %56 = getelementptr inbounds nuw %"struct.Luau::CodeGen::IrOp", ptr %18, i32 0, i32 0
  %57 = load i32, ptr %56, align 4
  %58 = call i32 @_ZN4Luau7CodeGenL17builtinLoadDoubleERNS0_9IrBuilderENS0_4IrOpE(ptr noundef nonnull align 8 dereferenceable(752) %50, i32 %57)
  %59 = getelementptr inbounds nuw %"struct.Luau::CodeGen::IrOp", ptr %17, i32 0, i32 0
  store i32 %58, ptr %59, align 4
  call void @llvm.lifetime.start.p0(i64 4, ptr %19) #11
  %60 = load ptr, ptr %10, align 8, !tbaa !20
  call void @llvm.memcpy.p0.p0.i64(ptr align 4 %20, ptr align 4 %17, i64 4, i1 false), !tbaa.struct !28
  %61 = getelementptr inbounds nuw %"struct.Luau::CodeGen::IrOp", ptr %20, i32 0, i32 0
  %62 = load i32, ptr %61, align 4
  %63 = call i32 @_ZN4Luau7CodeGen9IrBuilder4instENS0_5IrCmdENS0_4IrOpE(ptr noundef nonnull align 8 dereferenceable(752) %60, i8 noundef zeroext 66, i32 %62)
  %64 = getelementptr inbounds nuw %"struct.Luau::CodeGen::IrOp", ptr %19, i32 0, i32 0
  store i32 %63, ptr %64, align 4
  call void @llvm.lifetime.start.p0(i64 4, ptr %21) #11
  %65 = load ptr, ptr %10, align 8, !tbaa !20
  call void @llvm.memcpy.p0.p0.i64(ptr align 4 %22, ptr align 4 %19, i64 4, i1 false), !tbaa.struct !28
  %66 = getelementptr inbounds nuw %"struct.Luau::CodeGen::IrOp", ptr %22, i32 0, i32 0
  %67 = load i32, ptr %66, align 4
  %68 = call i32 @_ZN4Luau7CodeGen9IrBuilder4instENS0_5IrCmdENS0_4IrOpE(ptr noundef nonnull align 8 dereferenceable(752) %65, i8 noundef zeroext 122, i32 %67)
  %69 = getelementptr inbounds nuw %"struct.Luau::CodeGen::IrOp", ptr %21, i32 0, i32 0
  store i32 %68, ptr %69, align 4
  call void @llvm.lifetime.start.p0(i64 4, ptr %23) #11
  %70 = load ptr, ptr %10, align 8, !tbaa !20
  call void @llvm.memcpy.p0.p0.i64(ptr align 4 %24, ptr align 4 %21, i64 4, i1 false), !tbaa.struct !28
  %71 = getelementptr inbounds nuw %"struct.Luau::CodeGen::IrOp", ptr %24, i32 0, i32 0
  %72 = load i32, ptr %71, align 4
  %73 = call i32 @_ZN4Luau7CodeGen9IrBuilder4instENS0_5IrCmdENS0_4IrOpE(ptr noundef nonnull align 8 dereferenceable(752) %70, i8 noundef zeroext 64, i32 %72)
  %74 = getelementptr inbounds nuw %"struct.Luau::CodeGen::IrOp", ptr %23, i32 0, i32 0
  store i32 %73, ptr %74, align 4
  %75 = load ptr, ptr %10, align 8, !tbaa !20
  %76 = load ptr, ptr %10, align 8, !tbaa !20
  %77 = load i32, ptr %12, align 4, !tbaa !22
  %78 = trunc i32 %77 to i8
  %79 = call i32 @_ZN4Luau7CodeGen9IrBuilder5vmRegEh(ptr noundef nonnull align 8 dereferenceable(752) %76, i8 noundef zeroext %78)
  %80 = getelementptr inbounds nuw %"struct.Luau::CodeGen::IrOp", ptr %25, i32 0, i32 0
  store i32 %79, ptr %80, align 4
  call void @llvm.memcpy.p0.p0.i64(ptr align 4 %26, ptr align 4 %23, i64 4, i1 false), !tbaa.struct !28
  %81 = getelementptr inbounds nuw %"struct.Luau::CodeGen::IrOp", ptr %25, i32 0, i32 0
  %82 = load i32, ptr %81, align 4
  %83 = getelementptr inbounds nuw %"struct.Luau::CodeGen::IrOp", ptr %26, i32 0, i32 0
  %84 = load i32, ptr %83, align 4
  %85 = call i32 @_ZN4Luau7CodeGen9IrBuilder4instENS0_5IrCmdENS0_4IrOpES3_(ptr noundef nonnull align 8 dereferenceable(752) %75, i8 noundef zeroext 15, i32 %82, i32 %84)
  %86 = getelementptr inbounds nuw %"struct.Luau::CodeGen::IrOp", ptr %27, i32 0, i32 0
  store i32 %85, ptr %86, align 4
  %87 = load i32, ptr %12, align 4, !tbaa !22
  %88 = load i32, ptr %13, align 4, !tbaa !22
  %89 = icmp ne i32 %87, %88
  br i1 %89, label %90, label %106

90:                                               ; preds = %40
  %91 = load ptr, ptr %10, align 8, !tbaa !20
  %92 = load ptr, ptr %10, align 8, !tbaa !20
  %93 = load i32, ptr %12, align 4, !tbaa !22
  %94 = trunc i32 %93 to i8
  %95 = call i32 @_ZN4Luau7CodeGen9IrBuilder5vmRegEh(ptr noundef nonnull align 8 dereferenceable(752) %92, i8 noundef zeroext %94)
  %96 = getelementptr inbounds nuw %"struct.Luau::CodeGen::IrOp", ptr %28, i32 0, i32 0
  store i32 %95, ptr %96, align 4
  %97 = load ptr, ptr %10, align 8, !tbaa !20
  %98 = call i32 @_ZN4Luau7CodeGen9IrBuilder8constTagEh(ptr noundef nonnull align 8 dereferenceable(752) %97, i8 noundef zeroext 3)
  %99 = getelementptr inbounds nuw %"struct.Luau::CodeGen::IrOp", ptr %29, i32 0, i32 0
  store i32 %98, ptr %99, align 4
  %100 = getelementptr inbounds nuw %"struct.Luau::CodeGen::IrOp", ptr %28, i32 0, i32 0
  %101 = load i32, ptr %100, align 4
  %102 = getelementptr inbounds nuw %"struct.Luau::CodeGen::IrOp", ptr %29, i32 0, i32 0
  %103 = load i32, ptr %102, align 4
  %104 = call i32 @_ZN4Luau7CodeGen9IrBuilder4instENS0_5IrCmdENS0_4IrOpES3_(ptr noundef nonnull align 8 dereferenceable(752) %91, i8 noundef zeroext 12, i32 %101, i32 %103)
  %105 = getelementptr inbounds nuw %"struct.Luau::CodeGen::IrOp", ptr %30, i32 0, i32 0
  store i32 %104, ptr %105, align 4
  br label %106

106:                                              ; preds = %90, %40
  %107 = getelementptr inbounds nuw %"struct.Luau::CodeGen::BuiltinImplResult", ptr %8, i32 0, i32 0
  store i32 2, ptr %107, align 4, !tbaa !24
  %108 = getelementptr inbounds nuw %"struct.Luau::CodeGen::BuiltinImplResult", ptr %8, i32 0, i32 1
  store i32 1, ptr %108, align 4, !tbaa !27
  call void @llvm.lifetime.end.p0(i64 4, ptr %23) #11
  call void @llvm.lifetime.end.p0(i64 4, ptr %21) #11
  call void @llvm.lifetime.end.p0(i64 4, ptr %19) #11
  call void @llvm.lifetime.end.p0(i64 4, ptr %17) #11
  br label %109

109:                                              ; preds = %106, %37
  %110 = load i64, ptr %8, align 4
  ret i64 %110
}